target datalayout = "e-m:e-p270:32:32-p271:32:32-p272:64:64-i64:64-i128:128-f80:128-n8:16:32:64-S128"
target triple = "x86_64-pc-linux-gnu"

%"class.llvm::codeview::TypeIndex" = type { %"struct.llvm::support::detail::packed_endian_specific_integral" }
%"struct.llvm::support::detail::packed_endian_specific_integral" = type { %struct.anon }
%struct.anon = type { [4 x i8] }
%"class.llvm::codeview::GlobalTypeTableBuilder" = type { %"class.llvm::codeview::TypeCollection", ptr, %"class.llvm::codeview::SimpleTypeSerializer", %"class.llvm::DenseMap", %"class.llvm::SmallVector", %"class.llvm::SmallVector.0" }
%"class.llvm::codeview::TypeCollection" = type { ptr }
%"class.llvm::codeview::SimpleTypeSerializer" = type { %"class.std::vector" }
%"class.std::vector" = type { %"struct.std::_Vector_base" }
%"struct.std::_Vector_base" = type { %"struct.std::_Vector_base<unsigned char, std::allocator<unsigned char>>::_Vector_impl" }
%"struct.std::_Vector_base<unsigned char, std::allocator<unsigned char>>::_Vector_impl" = type { %"struct.std::_Vector_base<unsigned char, std::allocator<unsigned char>>::_Vector_impl_data" }
%"struct.std::_Vector_base<unsigned char, std::allocator<unsigned char>>::_Vector_impl_data" = type { ptr, ptr, ptr }
%"class.llvm::DenseMap" = type <{ ptr, i32, i32, i32, [4 x i8] }>
%"class.llvm::SmallVector" = type { %"class.llvm::SmallVectorImpl", %"struct.llvm::SmallVectorStorage" }
%"class.llvm::SmallVectorImpl" = type { %"class.llvm::SmallVectorTemplateBase" }
%"class.llvm::SmallVectorTemplateBase" = type { %"class.llvm::SmallVectorTemplateCommon" }
%"class.llvm::SmallVectorTemplateCommon" = type { %"class.llvm::SmallVectorBase" }
%"class.llvm::SmallVectorBase" = type { ptr, i32, i32 }
%"struct.llvm::SmallVectorStorage" = type { [32 x i8] }
%"class.llvm::SmallVector.0" = type { %"class.llvm::SmallVectorImpl.1", %"struct.llvm::SmallVectorStorage.4" }
%"class.llvm::SmallVectorImpl.1" = type { %"class.llvm::SmallVectorTemplateBase.2" }
%"class.llvm::SmallVectorTemplateBase.2" = type { %"class.llvm::SmallVectorTemplateCommon.3" }
%"class.llvm::SmallVectorTemplateCommon.3" = type { %"class.llvm::SmallVectorBase" }
%"struct.llvm::SmallVectorStorage.4" = type { [16 x i8] }

; Function Attrs: mustprogress nounwind uwtable
define linkonce_odr hidden noundef i32 @_ZN4llvm8byteswapIjvEET_S1_(i32 noundef %0) #0 comdat {
  %2 = alloca i32, align 4
  %3 = alloca i32, align 4
  store i32 %0, ptr %2, align 4
  %4 = load i32, ptr %2, align 4
  store i32 %4, ptr %3, align 4
  %5 = load i32, ptr %3, align 4
  %6 = call i32 @llvm.bswap.i32(i32 %5)
  ret i32 %6
}

; Function Attrs: mustprogress nounwind uwtable
define linkonce_odr hidden void @_ZN4llvm7support6endian5writeIjLm1EEEvPvT_NS_10endiannessE(ptr noundef %0, i32 noundef %1, i32 noundef %2) #0 comdat {
  %4 = alloca ptr, align 8
  %5 = alloca i32, align 4
  %6 = alloca i32, align 4
  store ptr %0, ptr %4, align 8
  store i32 %1, ptr %5, align 4
  store i32 %2, ptr %6, align 4
  %7 = load i32, ptr %5, align 4
  %8 = load i32, ptr %6, align 4
  %9 = call noundef i32 @_ZN4llvm7support6endian9byte_swapIjEET_S3_NS_10endiannessE(i32 noundef %7, i32 noundef %8)
  store i32 %9, ptr %5, align 4
  %10 = load ptr, ptr %4, align 8
  call void @llvm.assume(i1 true) [ "align"(ptr %10, i64 1) ]
  call void @llvm.memcpy.p0.p0.i64(ptr align 1 %10, ptr align 4 %5, i64 4, i1 false)
  ret void
}

; Function Attrs: mustprogress nounwind uwtable
define linkonce_odr hidden noundef i32 @_ZN4llvm3sys15getSwappedBytesEj(i32 noundef %0) #0 comdat {
  %2 = alloca i32, align 4
  store i32 %0, ptr %2, align 4
  %3 = load i32, ptr %2, align 4
  %4 = call noundef i32 @_ZN4llvm8byteswapIjvEET_S1_(i32 noundef %3) #9
  ret i32 %4
}

; Function Attrs: mustprogress nounwind uwtable
define linkonce_odr hidden void @_ZN4llvm7support6endian5writeIjLNS_10endiannessE1ELm1EEEvPvT_(ptr noundef %0, i32 noundef %1) #0 comdat {
  %3 = alloca ptr, align 8
  %4 = alloca i32, align 4
  store ptr %0, ptr %3, align 8
  store i32 %1, ptr %4, align 4
  %5 = load ptr, ptr %3, align 8
  %6 = load i32, ptr %4, align 4
  call void @_ZN4llvm7support6endian5writeIjLm1EEEvPvT_NS_10endiannessE(ptr noundef %5, i32 noundef %6, i32 noundef 1)
  ret void
}

; Function Attrs: mustprogress nounwind uwtable
define linkonce_odr hidden void @_ZN4llvm3sys13swapByteOrderIjEEvRT_(ptr noundef nonnull align 4 dereferenceable(4) %0) #0 comdat {
  %2 = alloca ptr, align 8
  store ptr %0, ptr %2, align 8
  %3 = load ptr, ptr %2, align 8
  %4 = load i32, ptr %3, align 4
  %5 = call noundef i32 @_ZN4llvm3sys15getSwappedBytesEj(i32 noundef %4)
  %6 = load ptr, ptr %2, align 8
  store i32 %5, ptr %6, align 4
  ret void
}

; Function Attrs: mustprogress nounwind uwtable
define linkonce_odr hidden void @_ZN4llvm7support6detail31packed_endian_specific_integralIjLNS_10endiannessE1ELm1ELm1EEaSEj(ptr noundef nonnull align 1 dereferenceable(4) %0, i32 noundef %1) #0 comdat align 2 {
  %3 = alloca ptr, align 8
  %4 = alloca i32, align 4
  store ptr %0, ptr %3, align 8
  store i32 %1, ptr %4, align 4
  %5 = load ptr, ptr %3, align 8
  %6 = getelementptr inbounds nuw %"struct.llvm::support::detail::packed_endian_specific_integral", ptr %5, i32 0, i32 0
  %7 = getelementptr inbounds nuw %struct.anon, ptr %6, i32 0, i32 0
  %8 = getelementptr inbounds [4 x i8], ptr %7, i64 0, i64 0
  %9 = load i32, ptr %4, align 4
  call void @_ZN4llvm7support6endian5writeIjLNS_10endiannessE1ELm1EEEvPvT_(ptr noundef %8, i32 noundef %9)
  ret void
}

; Function Attrs: mustprogress nounwind uwtable
define linkonce_odr hidden noundef i32 @_ZN4llvm7support6endian9byte_swapIjEET_S3_NS_10endiannessE(i32 noundef %0, i32 noundef %1) #0 comdat {
  %3 = alloca i32, align 4
  %4 = alloca i32, align 4
  store i32 %0, ptr %3, align 4
  store i32 %1, ptr %4, align 4
  %5 = load i32, ptr %4, align 4
  %6 = icmp ne i32 %5, 1
  br i1 %6, label %7, label %8

7:                                                ; preds = %2
  call void @_ZN4llvm3sys13swapByteOrderIjEEvRT_(ptr noundef nonnull align 4 dereferenceable(4) %3)
  br label %8

8:                                                ; preds = %7, %2
  %9 = load i32, ptr %3, align 4
  ret i32 %9
}

; Function Attrs: mustprogress nounwind uwtable
define linkonce_odr hidden void @_ZN4llvm7support6detail31packed_endian_specific_integralIjLNS_10endiannessE1ELm1ELm1EEC2Ej(ptr noundef nonnull align 1 dereferenceable(4) %0, i32 noundef %1) unnamed_addr #0 comdat align 2 {
  %3 = alloca ptr, align 8
  %4 = alloca i32, align 4
  store ptr %0, ptr %3, align 8
  store i32 %1, ptr %4, align 4
  %5 = load ptr, ptr %3, align 8
  %6 = load i32, ptr %4, align 4
  call void @_ZN4llvm7support6detail31packed_endian_specific_integralIjLNS_10endiannessE1ELm1ELm1EEaSEj(ptr noundef nonnull align 1 dereferenceable(4) %5, i32 noundef %6)
  ret void
}

; Function Attrs: mustprogress nounwind uwtable
define linkonce_odr hidden noundef i32 @_ZN4llvm7support6endian4readIjLm1EEET_PKvNS_10endiannessE(ptr noundef %0, i32 noundef %1) #0 comdat {
  %3 = alloca ptr, align 8
  %4 = alloca i32, align 4
  %5 = alloca i32, align 4
  store ptr %0, ptr %3, align 8
  store i32 %1, ptr %4, align 4
  %6 = load ptr, ptr %3, align 8
  call void @llvm.assume(i1 true) [ "align"(ptr %6, i64 1) ]
  call void @llvm.memcpy.p0.p0.i64(ptr align 4 %5, ptr align 1 %6, i64 4, i1 false)
  %7 = load i32, ptr %5, align 4
  %8 = load i32, ptr %4, align 4
  %9 = call noundef i32 @_ZN4llvm7support6endian9byte_swapIjEET_S3_NS_10endiannessE(i32 noundef %7, i32 noundef %8)
  ret i32 %9
}

; Function Attrs: mustprogress nounwind uwtable
define linkonce_odr hidden void @_ZN4llvm8codeview9TypeIndexC2ENS0_14SimpleTypeKindE(ptr noundef nonnull align 1 dereferenceable(4) %0, i32 noundef %1) unnamed_addr #0 comdat align 2 {
  %3 = alloca ptr, align 8
  %4 = alloca i32, align 4
  store ptr %0, ptr %3, align 8
  store i32 %1, ptr %4, align 4
  %5 = load ptr, ptr %3, align 8
  %6 = getelementptr inbounds nuw %"class.llvm::codeview::TypeIndex", ptr %5, i32 0, i32 0
  %7 = load i32, ptr %4, align 4
  call void @_ZN4llvm7support6detail31packed_endian_specific_integralIjLNS_10endiannessE1ELm1ELm1EEC2Ej(ptr noundef nonnull align 1 dereferenceable(4) %6, i32 noundef %7)
  ret void
}

; Function Attrs: mustprogress nounwind uwtable
define linkonce_odr hidden noundef i32 @_ZN4llvm7support6endian4readIjLNS_10endiannessE1ELm1EEET_PKv(ptr noundef %0) #0 comdat {
  %2 = alloca ptr, align 8
  store ptr %0, ptr %2, align 8
  %3 = load ptr, ptr %2, align 8
  %4 = call noundef i32 @_ZN4llvm7support6endian4readIjLm1EEET_PKvNS_10endiannessE(ptr noundef %3, i32 noundef 1)
  ret i32 %4
}

; Function Attrs: mustprogress nounwind uwtable
define linkonce_odr hidden noundef i32 @_ZNK4llvm8codeview9TypeIndex8getIndexEv(ptr noundef nonnull align 1 dereferenceable(4) %0) #0 comdat align 2 {
  %2 = alloca ptr, align 8
  store ptr %0, ptr %2, align 8
  %3 = load ptr, ptr %2, align 8
  %4 = getelementptr inbounds nuw %"class.llvm::codeview::TypeIndex", ptr %3, i32 0, i32 0
  %5 = call noundef i32 @_ZNK4llvm7support6detail31packed_endian_specific_integralIjLNS_10endiannessE1ELm1ELm1EEcvjEv(ptr noundef nonnull align 1 dereferenceable(4) %4)
  ret i32 %5
}

; Function Attrs: mustprogress nounwind uwtable
define linkonce_odr hidden noundef zeroext i1 @_ZN4llvm8codevieweqERKNS0_9TypeIndexES3_(ptr noundef nonnull align 1 dereferenceable(4) %0, ptr noundef nonnull align 1 dereferenceable(4) %1) #0 comdat {
  %3 = alloca ptr, align 8
  %4 = alloca ptr, align 8
  store ptr %0, ptr %3, align 8
  store ptr %1, ptr %4, align 8
  %5 = load ptr, ptr %3, align 8
  %6 = call noundef i32 @_ZNK4llvm8codeview9TypeIndex8getIndexEv(ptr noundef nonnull align 1 dereferenceable(4) %5)
  %7 = load ptr, ptr %4, align 8
  %8 = call noundef i32 @_ZNK4llvm8codeview9TypeIndex8getIndexEv(ptr noundef nonnull align 1 dereferenceable(4) %7)
  %9 = icmp eq i32 %6, %8
  ret i1 %9
}

; Function Attrs: mustprogress nounwind uwtable
define linkonce_odr hidden i32 @_ZN4llvm8codeview9TypeIndex4NoneEv() #0 comdat align 2 {
  %1 = alloca %"class.llvm::codeview::TypeIndex", align 1
  call void @_ZN4llvm8codeview9TypeIndexC2ENS0_14SimpleTypeKindE(ptr noundef nonnull align 1 dereferenceable(4) %1, i32 noundef 0)
  %2 = getelementptr inbounds nuw %"class.llvm::codeview::TypeIndex", ptr %1, i32 0, i32 0
  %3 = getelementptr inbounds nuw %"struct.llvm::support::detail::packed_endian_specific_integral", ptr %2, i32 0, i32 0
  %4 = getelementptr inbounds nuw %struct.anon, ptr %3, i32 0, i32 0
  %5 = load i32, ptr %4, align 1
  ret i32 %5
}

; Function Attrs: mustprogress nounwind uwtable
define linkonce_odr hidden noundef i32 @_ZNK4llvm7support6detail31packed_endian_specific_integralIjLNS_10endiannessE1ELm1ELm1EEcvjEv(ptr noundef nonnull align 1 dereferenceable(4) %0) #0 comdat align 2 {
  %2 = alloca ptr, align 8
  store ptr %0, ptr %2, align 8
  %3 = load ptr, ptr %2, align 8
  %4 = getelementptr inbounds nuw %"struct.llvm::support::detail::packed_endian_specific_integral", ptr %3, i32 0, i32 0
  %5 = getelementptr inbounds nuw %struct.anon, ptr %4, i32 0, i32 0
  %6 = getelementptr inbounds [4 x i8], ptr %5, i64 0, i64 0
  %7 = call noundef i32 @_ZN4llvm7support6endian4readIjLNS_10endiannessE1ELm1EEET_PKv(ptr noundef %6)
  ret i32 %7
}

; Function Attrs: mustprogress nounwind uwtable
define linkonce_odr hidden noundef i32 @_ZNK4llvm8codeview9TypeIndex12toArrayIndexEv(ptr noundef nonnull align 1 dereferenceable(4) %0) #0 comdat align 2 {
  %2 = alloca ptr, align 8
  store ptr %0, ptr %2, align 8
  %3 = load ptr, ptr %2, align 8
  %4 = call noundef i32 @_ZNK4llvm8codeview9TypeIndex8getIndexEv(ptr noundef nonnull align 1 dereferenceable(4) %3)
  %5 = and i32 %4, 2147483647
  %6 = sub i32 %5, 4096
  ret i32 %6
}

; Function Attrs: mustprogress nounwind uwtable
define linkonce_odr hidden noundef zeroext i1 @_ZNK4llvm8codeview9TypeIndex10isNoneTypeEv(ptr noundef nonnull align 1 dereferenceable(4) %0) #0 comdat align 2 {
  %2 = alloca ptr, align 8
  %3 = alloca %"class.llvm::codeview::TypeIndex", align 1
  store ptr %0, ptr %2, align 8
  %4 = load ptr, ptr %2, align 8
  %5 = call i32 @_ZN4llvm8codeview9TypeIndex4NoneEv()
  %6 = getelementptr inbounds nuw %"class.llvm::codeview::TypeIndex", ptr %3, i32 0, i32 0
  %7 = getelementptr inbounds nuw %"struct.llvm::support::detail::packed_endian_specific_integral", ptr %6, i32 0, i32 0
  %8 = getelementptr inbounds nuw %struct.anon, ptr %7, i32 0, i32 0
  store i32 %5, ptr %8, align 1
  %9 = call noundef zeroext i1 @_ZN4llvm8codevieweqERKNS0_9TypeIndexES3_(ptr noundef nonnull align 1 dereferenceable(4) %4, ptr noundef nonnull align 1 dereferenceable(4) %3)
  ret i1 %9
}

; Function Attrs: mustprogress nounwind uwtable
define linkonce_odr hidden noundef zeroext i1 @_ZNK4llvm8codeview9TypeIndex8isSimpleEv(ptr noundef nonnull align 1 dereferenceable(4) %0) #0 comdat align 2 {
  %2 = alloca ptr, align 8
  store ptr %0, ptr %2, align 8
  %3 = load ptr, ptr %2, align 8
  %4 = getelementptr inbounds nuw %"class.llvm::codeview::TypeIndex", ptr %3, i32 0, i32 0
  %5 = call noundef i32 @_ZNK4llvm7support6detail31packed_endian_specific_integralIjLNS_10endiannessE1ELm1ELm1EEcvjEv(ptr noundef nonnull align 1 dereferenceable(4) %4)
  %6 = icmp ult i32 %5, 4096
  ret i1 %6
}

; Function Attrs: mustprogress nounwind uwtable
define dso_local noundef zeroext i1 @_ZN4llvm8codeview22GlobalTypeTableBuilder8containsENS0_9TypeIndexE(ptr noundef nonnull align 8 dereferenceable(144) %0, i32 %1) unnamed_addr #0 align 2 {
  %3 = alloca i1, align 1
  %4 = alloca %"class.llvm::codeview::TypeIndex", align 1
  %5 = alloca ptr, align 8
  %6 = getelementptr inbounds nuw %"class.llvm::codeview::TypeIndex", ptr %4, i32 0, i32 0
  %7 = getelementptr inbounds nuw %"struct.llvm::support::detail::packed_endian_specific_integral", ptr %6, i32 0, i32 0
  %8 = getelementptr inbounds nuw %struct.anon, ptr %7, i32 0, i32 0
  store i32 %1, ptr %8, align 1
  store ptr %0, ptr %5, align 8
  %9 = load ptr, ptr %5, align 8
  %10 = call noundef zeroext i1 @_ZNK4llvm8codeview9TypeIndex8isSimpleEv(ptr noundef nonnull align 1 dereferenceable(4) %4)
  br i1 %10, label %13, label %11

11:                                               ; preds = %2
  %12 = call noundef zeroext i1 @_ZNK4llvm8codeview9TypeIndex10isNoneTypeEv(ptr noundef nonnull align 1 dereferenceable(4) %4)
  br i1 %12, label %13, label %14

13:                                               ; preds = %11, %2
  store i1 false, ptr %3, align 1
  br label %20

14:                                               ; preds = %11
  %15 = call noundef i32 @_ZNK4llvm8codeview9TypeIndex12toArrayIndexEv(ptr noundef nonnull align 1 dereferenceable(4) %4)
  %16 = zext i32 %15 to i64
  %17 = getelementptr inbounds nuw %"class.llvm::codeview::GlobalTypeTableBuilder", ptr %9, i32 0, i32 4
  %18 = call noundef i64 @_ZNK4llvm15SmallVectorBaseIjE4sizeEv(ptr noundef nonnull align 8 dereferenceable(16) %17)
  %19 = icmp ult i64 %16, %18
  store i1 %19, ptr %3, align 1
  br label %20

20:                                               ; preds = %14, %13
  %21 = load i1, ptr %3, align 1
  ret i1 %21
}