; Function Attrs: mustprogress nounwind uwtable
define dso_local noundef zeroext i1 @_ZN4llvm8codeview22GlobalTypeTableBuilder8containsENS0_9TypeIndexE(ptr noundef nonnull align 8 dereferenceable(144) %0, i32 %1) unnamed_addr #0 align 2 {
  %3 = icmp ult i32 %1, 4096
  br i1 %3, label %11, label %4

4:                                                ; preds = %2
  %5 = and i32 %1, 2147483647
  %6 = add nsw i32 %5, -4096
  %7 = zext i32 %6 to i64
  %8 = getelementptr inbounds nuw i8, ptr %0, i64 64
  %9 = tail call noundef i64 @_ZNK4llvm15SmallVectorBaseIjE4sizeEv(ptr noundef nonnull align 8 dereferenceable(16) %8) #13
  %10 = icmp ugt i64 %9, %7
  br label %11

11:                                               ; preds = %2, %4
  %.0 = phi i1 [ %10, %4 ], [ false, %2 ]
  ret i1 %.0
}